; Function Attrs: mustprogress nofree norecurse nosync nounwind willreturn memory(argmem: readwrite) uwtable
define internal noundef zeroext i1 @"_ZNSt17_Function_handlerIFvN7xgboost6common4SpanIKaLm18446744073709551615EEENS2_IaLm18446744073709551615EEEEZZNS0_10collective4Coll9AllreduceERKNS7_4CommES5_NS0_21ArrayInterfaceHandler4TypeENS7_2OpEENK3$_2clISt7bit_xorIvEmEEDaT_T0_EUlS4_S5_E_E10_M_managerERSt9_Any_dataRKSN_St18_Manager_operation"(ptr noundef nonnull writeonly align 8 captures(none) dereferenceable(16) %0, ptr noundef nonnull align 8 dereferenceable(16) %1, i32 noundef %2) #13 align 2 personality ptr @__gxx_personality_v0 {
  switch i32 %2, label %"_ZNSt14_Function_base13_Base_managerIZZN7xgboost10collective4Coll9AllreduceERKNS2_4CommENS1_6common4SpanIaLm18446744073709551615EEENS1_21ArrayInterfaceHandler4TypeENS2_2OpEENK3$_2clISt7bit_xorIvEmEEDaT_T0_EUlNS8_IKaLm18446744073709551615EEES9_E_E10_M_managerERSt9_Any_dataRKSN_St18_Manager_operation.exit" [
    i32 0, label %4
    i32 1, label %5
    i32 2, label %6
  ]

4:                                                ; preds = %3
  store ptr @"_ZTIZZN7xgboost10collective4Coll9AllreduceERKNS0_4CommENS_6common4SpanIaLm18446744073709551615EEENS_21ArrayInterfaceHandler4TypeENS0_2OpEENK3$_2clISt7bit_xorIvEmEEDaT_T0_EUlNS6_IKaLm18446744073709551615EEES7_E_", ptr %0, align 8, !tbaa !476
  br label %"_ZNSt14_Function_base13_Base_managerIZZN7xgboost10collective4Coll9AllreduceERKNS2_4CommENS1_6common4SpanIaLm18446744073709551615EEENS1_21ArrayInterfaceHandler4TypeENS2_2OpEENK3$_2clISt7bit_xorIvEmEEDaT_T0_EUlNS8_IKaLm18446744073709551615EEES9_E_E10_M_managerERSt9_Any_dataRKSN_St18_Manager_operation.exit"

5:                                                ; preds = %3
  store ptr %1, ptr %0, align 8, !tbaa !9
  br label %"_ZNSt14_Function_base13_Base_managerIZZN7xgboost10collective4Coll9AllreduceERKNS2_4CommENS1_6common4SpanIaLm18446744073709551615EEENS1_21ArrayInterfaceHandler4TypeENS2_2OpEENK3$_2clISt7bit_xorIvEmEEDaT_T0_EUlNS8_IKaLm18446744073709551615EEES9_E_E10_M_managerERSt9_Any_dataRKSN_St18_Manager_operation.exit"

6:                                                ; preds = %3
  %.val.i = load i16, ptr %1, align 8
  store i16 %.val.i, ptr %0, align 8
  br label %"_ZNSt14_Function_base13_Base_managerIZZN7xgboost10collective4Coll9AllreduceERKNS2_4CommENS1_6common4SpanIaLm18446744073709551615EEENS1_21ArrayInterfaceHandler4TypeENS2_2OpEENK3$_2clISt7bit_xorIvEmEEDaT_T0_EUlNS8_IKaLm18446744073709551615EEES9_E_E10_M_managerERSt9_Any_dataRKSN_St18_Manager_operation.exit"

"_ZNSt14_Function_base13_Base_managerIZZN7xgboost10collective4Coll9AllreduceERKNS2_4CommENS1_6common4SpanIaLm18446744073709551615EEENS1_21ArrayInterfaceHandler4TypeENS2_2OpEENK3$_2clISt7bit_xorIvEmEEDaT_T0_EUlNS8_IKaLm18446744073709551615EEES9_E_E10_M_managerERSt9_Any_dataRKSN_St18_Manager_operation.exit": ; preds = %3, %6, %5, %4
  ret i1 false
}